target datalayout = "e-m:e-p270:32:32-p271:32:32-p272:64:64-i64:64-i128:128-f80:128-n8:16:32:64-S128"
target triple = "x86_64-pc-linux-gnu"

%struct.anon.3 = type { ptr, ptr, ptr }
%struct.test_ssl_cbf = type { ptr, ptr, ptr, ptr, ptr, ptr, ptr, ptr, ptr, ptr, ptr, ptr, i32, i32, i32, i8 }

@.str = private unnamed_addr constant [33 x i8] c"\0AERROR - %s line %d failed with:\00", align 1
@.str.1 = private unnamed_addr constant [105 x i8] c"generated/home/dtcxzyw/WorkSpace/Projects/compilers/llvm-opt-benchmark/bench/wolfssl/wolfssl/tests/api.c\00", align 1
@.str.2 = private unnamed_addr constant [16 x i8] c"\0A    expected: \00", align 1
@stdout = external global ptr, align 8
@.str.3 = private unnamed_addr constant [9 x i8] c"%s == %s\00", align 1
@.str.5 = private unnamed_addr constant [2 x i8] c"1\00", align 1
@.str.6 = private unnamed_addr constant [16 x i8] c"\0A    result:   \00", align 1
@.str.7 = private unnamed_addr constant [9 x i8] c"%d != %d\00", align 1
@.str.8 = private unnamed_addr constant [3 x i8] c"\0A\0A\00", align 1
@.str.983 = private unnamed_addr constant [2 x i8] c"\0A\00", align 1
@stderr = external global ptr, align 8
@__const.test_short_session_id.params = private unnamed_addr constant [2 x %struct.anon.3] [%struct.anon.3 { ptr @wolfTLSv1_2_client_method, ptr @wolfTLSv1_2_server_method, ptr @.str.2075 }, %struct.anon.3 { ptr @wolfTLSv1_1_client_method, ptr @wolfTLSv1_1_server_method, ptr @.str.2076 }], align 16
@.str.2077 = private unnamed_addr constant [27 x i8] c"\09Testing short ID with %s\0A\00", align 1
@.str.2078 = private unnamed_addr constant [78 x i8] c"test_wolfSSL_client_server_nofail_memio(&client_cbf, &server_cbf, ((void*)0))\00", align 1

; Function Attrs: nounwind uwtable
define internal i32 @test_short_session_id() #0 {
  %1 = alloca i32, align 4
  %2 = alloca i32, align 4
  %3 = alloca %struct.test_ssl_cbf, align 8
  %4 = alloca %struct.test_ssl_cbf, align 8
  %5 = alloca i64, align 8
  %6 = alloca [2 x %struct.anon.3], align 16
  %7 = alloca i32, align 4
  %8 = alloca i32, align 4
  call void @llvm.lifetime.start.p0(i64 4, ptr %1) #14
  store i32 3, ptr %1, align 4, !tbaa !10
  call void @llvm.lifetime.start.p0(i64 4, ptr %2) #14
  store i32 0, ptr %2, align 4, !tbaa !10
  call void @llvm.lifetime.start.p0(i64 112, ptr %3) #14
  call void @llvm.lifetime.start.p0(i64 112, ptr %4) #14
  call void @llvm.lifetime.start.p0(i64 8, ptr %5) #14
  call void @llvm.lifetime.start.p0(i64 48, ptr %6) #14
  call void @llvm.memcpy.p0.p0.i64(ptr align 16 %6, ptr align 16 @__const.test_short_session_id.params, i64 48, i1 false)
  %9 = load ptr, ptr @stderr, align 8, !tbaa !22
  %10 = call i32 (ptr, ptr, ...) @fprintf(ptr noundef %9, ptr noundef @.str.983) #14
  store i64 0, ptr %5, align 8, !tbaa !72
  br label %11

11:                                               ; preds = %125, %0
  %12 = load i64, ptr %5, align 8, !tbaa !72
  %13 = icmp ult i64 %12, 2
  br i1 %13, label %14, label %30

14:                                               ; preds = %11
  %15 = load i32, ptr %1, align 4, !tbaa !10
  %16 = icmp eq i32 %15, 1
  br i1 %16, label %26, label %17

17:                                               ; preds = %14
  %18 = load i32, ptr %1, align 4, !tbaa !10
  %19 = icmp eq i32 %18, 3
  br i1 %19, label %26, label %20

20:                                               ; preds = %17
  %21 = load i32, ptr %1, align 4, !tbaa !10
  %22 = icmp eq i32 %21, 2
  br i1 %22, label %26, label %23

23:                                               ; preds = %20
  %24 = load i32, ptr %1, align 4, !tbaa !10
  %25 = icmp eq i32 %24, 4
  br label %26

26:                                               ; preds = %23, %20, %17, %14
  %27 = phi i1 [ true, %20 ], [ true, %17 ], [ true, %14 ], [ %25, %23 ]
  %28 = xor i1 %27, true
  %29 = xor i1 %28, true
  br label %30

30:                                               ; preds = %26, %11
  %31 = phi i1 [ false, %11 ], [ %29, %26 ]
  br i1 %31, label %32, label %128

32:                                               ; preds = %30
  call void @llvm.memset.p0.i64(ptr align 8 %3, i8 0, i64 112, i1 false)
  call void @llvm.memset.p0.i64(ptr align 8 %4, i8 0, i64 112, i1 false)
  %33 = load ptr, ptr @stderr, align 8, !tbaa !22
  %34 = load i64, ptr %5, align 8, !tbaa !72
  %35 = getelementptr inbounds nuw [2 x %struct.anon.3], ptr %6, i64 0, i64 %34
  %36 = getelementptr inbounds nuw %struct.anon.3, ptr %35, i32 0, i32 2
  %37 = load ptr, ptr %36, align 8, !tbaa !178
  %38 = call i32 (ptr, ptr, ...) @fprintf(ptr noundef %33, ptr noundef @.str.2077, ptr noundef %37) #14
  %39 = getelementptr inbounds nuw %struct.test_ssl_cbf, ptr %3, i32 0, i32 2
  store ptr @test_short_session_id_ssl_ready, ptr %39, align 8, !tbaa !180
  %40 = load i64, ptr %5, align 8, !tbaa !72
  %41 = getelementptr inbounds nuw [2 x %struct.anon.3], ptr %6, i64 0, i64 %40
  %42 = getelementptr inbounds nuw %struct.anon.3, ptr %41, i32 0, i32 0
  %43 = load ptr, ptr %42, align 8, !tbaa !181
  %44 = getelementptr inbounds nuw %struct.test_ssl_cbf, ptr %3, i32 0, i32 0
  store ptr %43, ptr %44, align 8, !tbaa !182
  %45 = load i64, ptr %5, align 8, !tbaa !72
  %46 = getelementptr inbounds nuw [2 x %struct.anon.3], ptr %6, i64 0, i64 %45
  %47 = getelementptr inbounds nuw %struct.anon.3, ptr %46, i32 0, i32 1
  %48 = load ptr, ptr %47, align 8, !tbaa !183
  %49 = getelementptr inbounds nuw %struct.test_ssl_cbf, ptr %4, i32 0, i32 0
  store ptr %48, ptr %49, align 8, !tbaa !182
  br label %50

50:                                               ; preds = %32
  %51 = load i32, ptr %1, align 4, !tbaa !10
  %52 = icmp eq i32 %51, 1
  br i1 %52, label %62, label %53

53:                                               ; preds = %50
  %54 = load i32, ptr %1, align 4, !tbaa !10
  %55 = icmp eq i32 %54, 3
  br i1 %55, label %62, label %56

56:                                               ; preds = %53
  %57 = load i32, ptr %1, align 4, !tbaa !10
  %58 = icmp eq i32 %57, 2
  br i1 %58, label %62, label %59

59:                                               ; preds = %56
  %60 = load i32, ptr %1, align 4, !tbaa !10
  %61 = icmp eq i32 %60, 4
  br i1 %61, label %62, label %122

62:                                               ; preds = %59, %56, %53, %50
  call void @llvm.lifetime.start.p0(i64 4, ptr %7) #14
  %63 = call i32 @test_wolfSSL_client_server_nofail_memio(ptr noundef %3, ptr noundef %4, ptr noundef null)
  store i32 %63, ptr %7, align 4, !tbaa !10
  call void @llvm.lifetime.start.p0(i64 4, ptr %8) #14
  store i32 1, ptr %8, align 4, !tbaa !10
  br label %64

64:                                               ; preds = %62
  %65 = load i32, ptr %1, align 4, !tbaa !10
  %66 = icmp eq i32 %65, 1
  br i1 %66, label %76, label %67

67:                                               ; preds = %64
  %68 = load i32, ptr %1, align 4, !tbaa !10
  %69 = icmp eq i32 %68, 3
  br i1 %69, label %76, label %70

70:                                               ; preds = %67
  %71 = load i32, ptr %1, align 4, !tbaa !10
  %72 = icmp eq i32 %71, 2
  br i1 %72, label %76, label %73

73:                                               ; preds = %70
  %74 = load i32, ptr %1, align 4, !tbaa !10
  %75 = icmp eq i32 %74, 4
  br i1 %75, label %76, label %113

76:                                               ; preds = %73, %70, %67, %64
  %77 = load i32, ptr %7, align 4, !tbaa !10
  %78 = load i32, ptr %8, align 4, !tbaa !10
  %79 = icmp eq i32 %77, %78
  br i1 %79, label %106, label %80

80:                                               ; preds = %76
  br label %81

81:                                               ; preds = %80
  %82 = load i32, ptr %1, align 4, !tbaa !10
  %83 = icmp eq i32 %82, 2
  br i1 %83, label %87, label %84

84:                                               ; preds = %81
  %85 = load i32, ptr %1, align 4, !tbaa !10
  %86 = icmp eq i32 %85, 4
  br i1 %86, label %87, label %89

87:                                               ; preds = %84, %81
  %88 = load i32, ptr %2, align 4, !tbaa !10
  store i32 %88, ptr %1, align 4, !tbaa !10
  br label %103

89:                                               ; preds = %84
  %90 = call i32 (ptr, ...) @printf(ptr noundef @.str, ptr noundef @.str.1, i32 noundef 94759)
  %91 = load ptr, ptr @stdout, align 8, !tbaa !22
  %92 = call i32 @fputs(ptr noundef @.str.2, ptr noundef %91)
  %93 = call i32 (ptr, ...) @printf(ptr noundef @.str.3, ptr noundef @.str.2078, ptr noundef @.str.5)
  %94 = load ptr, ptr @stdout, align 8, !tbaa !22
  %95 = call i32 @fputs(ptr noundef @.str.6, ptr noundef %94)
  %96 = load i32, ptr %7, align 4, !tbaa !10
  %97 = load i32, ptr %8, align 4, !tbaa !10
  %98 = call i32 (ptr, ...) @printf(ptr noundef @.str.7, i32 noundef %96, i32 noundef %97)
  %99 = load ptr, ptr @stdout, align 8, !tbaa !22
  %100 = call i32 @fputs(ptr noundef @.str.8, ptr noundef %99)
  %101 = load ptr, ptr @stdout, align 8, !tbaa !22
  %102 = call i32 @fflush(ptr noundef %101)
  store i32 0, ptr %1, align 4, !tbaa !10
  br label %103

103:                                              ; preds = %89, %87
  br label %104

104:                                              ; preds = %103
  br label %105

105:                                              ; preds = %104
  br label %112

106:                                              ; preds = %76
  %107 = load i32, ptr %1, align 4, !tbaa !10
  %108 = icmp eq i32 %107, 4
  br i1 %108, label %109, label %110

109:                                              ; preds = %106
  store i32 2, ptr %1, align 4, !tbaa !10
  br label %111

110:                                              ; preds = %106
  store i32 1, ptr %1, align 4, !tbaa !10
  br label %111

111:                                              ; preds = %110, %109
  br label %112

112:                                              ; preds = %111, %105
  br label %113

113:                                              ; preds = %112, %73
  %114 = load i32, ptr %1, align 4, !tbaa !10
  %115 = icmp eq i32 %114, 2
  br i1 %115, label %116, label %119

116:                                              ; preds = %113
  %117 = load i32, ptr %2, align 4, !tbaa !10
  %118 = add nsw i32 %117, -1
  store i32 %118, ptr %2, align 4, !tbaa !10
  br label %119

119:                                              ; preds = %116, %113
  br label %120

120:                                              ; preds = %119
  br label %121

121:                                              ; preds = %120
  call void @llvm.lifetime.end.p0(i64 4, ptr %8) #14
  call void @llvm.lifetime.end.p0(i64 4, ptr %7) #14
  br label %122

122:                                              ; preds = %121, %59
  br label %123

123:                                              ; preds = %122
  br label %124

124:                                              ; preds = %123
  br label %125

125:                                              ; preds = %124
  %126 = load i64, ptr %5, align 8, !tbaa !72
  %127 = add i64 %126, 1
  store i64 %127, ptr %5, align 8, !tbaa !72
  br label %11, !llvm.loop !184

128:                                              ; preds = %30
  %129 = load i32, ptr %1, align 4, !tbaa !10
  %130 = icmp eq i32 %129, 2
  br i1 %130, label %131, label %132

131:                                              ; preds = %128
  br label %140

132:                                              ; preds = %128
  %133 = load i32, ptr %1, align 4, !tbaa !10
  %134 = icmp eq i32 %133, 4
  br i1 %134, label %135, label %136

135:                                              ; preds = %132
  br label %138

136:                                              ; preds = %132
  %137 = load i32, ptr %1, align 4, !tbaa !10
  br label %138

138:                                              ; preds = %136, %135
  %139 = phi i32 [ 3, %135 ], [ %137, %136 ]
  br label %140

140:                                              ; preds = %138, %131
  %141 = phi i32 [ 1, %131 ], [ %139, %138 ]
  call void @llvm.lifetime.end.p0(i64 48, ptr %6) #14
  call void @llvm.lifetime.end.p0(i64 8, ptr %5) #14
  call void @llvm.lifetime.end.p0(i64 112, ptr %4) #14
  call void @llvm.lifetime.end.p0(i64 112, ptr %3) #14
  call void @llvm.lifetime.end.p0(i64 4, ptr %2) #14
  call void @llvm.lifetime.end.p0(i64 4, ptr %1) #14
  ret i32 %141
}