; Function Attrs: nounwind uwtable
define internal range(i32 0, 2) i32 @test_short_session_id() #0 {
  %1 = alloca %struct.test_ssl_cbf, align 8
  %2 = alloca %struct.test_ssl_cbf, align 8
  call void @llvm.lifetime.start.p0(i64 112, ptr nonnull %1) #27
  call void @llvm.lifetime.start.p0(i64 112, ptr nonnull %2) #27
  %3 = load ptr, ptr @stderr, align 8, !tbaa !22
  %fputc = tail call i32 @fputc(i32 10, ptr %3)
  %4 = getelementptr inbounds nuw i8, ptr %1, i64 16
  %5 = getelementptr inbounds nuw i8, ptr %1, i64 8
  %6 = getelementptr inbounds nuw i8, ptr %2, i64 8
  br label %7

7:                                                ; preds = %0, %32
  %.057 = phi i32 [ 3, %0 ], [ %.2, %32 ]
  %8 = phi i1 [ true, %0 ], [ false, %32 ]
  %.05056 = phi i64 [ 0, %0 ], [ 1, %32 ]
  %.0.off = add nsw i32 %.057, -1
  %switch = icmp ult i32 %.0.off, 4
  br i1 %switch, label %9, label %.critedge

9:                                                ; preds = %7
  call void @llvm.memset.p0.i64(ptr noundef nonnull align 8 dereferenceable(112) %5, i8 0, i64 104, i1 false)
  call void @llvm.memset.p0.i64(ptr noundef nonnull align 8 dereferenceable(112) %6, i8 0, i64 104, i1 false)
  %10 = load ptr, ptr @stderr, align 8, !tbaa !22
  %11 = getelementptr inbounds nuw [2 x %struct.anon.3], ptr @__const.test_short_session_id.params, i64 0, i64 %.05056
  %12 = getelementptr inbounds nuw i8, ptr %11, i64 16
  %13 = load ptr, ptr %12, align 8, !tbaa !164
  %14 = tail call i32 (ptr, ptr, ...) @fprintf(ptr noundef %10, ptr noundef nonnull @.str.2077, ptr noundef %13) #28
  store ptr @test_short_session_id_ssl_ready, ptr %4, align 8, !tbaa !166
  %15 = load ptr, ptr %11, align 8, !tbaa !167
  store ptr %15, ptr %1, align 8, !tbaa !168
  %16 = getelementptr inbounds nuw i8, ptr %11, i64 8
  %17 = load ptr, ptr %16, align 8, !tbaa !169
  store ptr %17, ptr %2, align 8, !tbaa !168
  %18 = call i32 @test_wolfSSL_client_server_nofail_memio(ptr noundef nonnull %1, ptr noundef nonnull %2, ptr noundef null)
  %19 = icmp eq i32 %18, 1
  br i1 %19, label %32, label %20

20:                                               ; preds = %9
  %21 = tail call i32 (ptr, ...) @printf(ptr noundef nonnull dereferenceable(1) @.str, ptr noundef nonnull @.str.1, i32 noundef 94759)
  %22 = load ptr, ptr @stdout, align 8, !tbaa !22
  %23 = tail call i64 @fwrite(ptr nonnull @.str.2, i64 15, i64 1, ptr %22)
  %24 = tail call i32 (ptr, ...) @printf(ptr noundef nonnull dereferenceable(1) @.str.3, ptr noundef nonnull @.str.2078, ptr noundef nonnull @.str.5)
  %25 = load ptr, ptr @stdout, align 8, !tbaa !22
  %26 = tail call i64 @fwrite(ptr nonnull @.str.6, i64 15, i64 1, ptr %25)
  %27 = tail call i32 (ptr, ...) @printf(ptr noundef nonnull dereferenceable(1) @.str.7, i32 noundef %18, i32 noundef 1)
  %28 = load ptr, ptr @stdout, align 8, !tbaa !22
  %29 = tail call i64 @fwrite(ptr nonnull @.str.8, i64 2, i64 1, ptr %28)
  %30 = load ptr, ptr @stdout, align 8, !tbaa !22
  %31 = tail call i32 @fflush(ptr noundef %30)
  br label %32

32:                                               ; preds = %9, %20
  %.2 = phi i32 [ 0, %20 ], [ 1, %9 ]
  br i1 %8, label %7, label %.critedge, !llvm.loop !170

.critedge:                                        ; preds = %7, %32
  %.0.lcssa = phi i32 [ 0, %7 ], [ %.2, %32 ]
  call void @llvm.lifetime.end.p0(i64 112, ptr nonnull %2) #27
  call void @llvm.lifetime.end.p0(i64 112, ptr nonnull %1) #27
  ret i32 %.0.lcssa
}